target datalayout = "e-m:e-p270:32:32-p271:32:32-p272:64:64-i64:64-i128:128-f80:128-n8:16:32:64-S128"
target triple = "x86_64-pc-linux-gnu"

%struct.ZSTD_customMem = type { ptr, ptr, ptr }
%struct.ZSTD_frameParameters = type { i32, i32, i32 }
%struct.ZSTD_compressionParameters = type { i32, i32, i32, i32, i32, i32, i32 }
%struct.ZSTD_CCtx_params_s = type { i32, %struct.ZSTD_compressionParameters, %struct.ZSTD_frameParameters, i32, i32, i64, i32, i32, i32, i32, i64, i32, i32, %struct.ldmParams_t, i32, i32, i32, i32, i32, i32, i32, i64, i32, i32, %struct.ZSTD_customMem, i32, i32, ptr, ptr, i32 }
%struct.ldmParams_t = type { i32, i32, i32, i32, i32, i32 }

; Function Attrs: nounwind uwtable
define internal i32 @ZSTD_rowMatchFinderSupported(i32 noundef %0) #0 {
  %2 = alloca i32, align 4
  store i32 %0, ptr %2, align 4, !tbaa !53
  %3 = load i32, ptr %2, align 4, !tbaa !53
  %4 = icmp uge i32 %3, 3
  br i1 %4, label %5, label %8

5:                                                ; preds = %1
  %6 = load i32, ptr %2, align 4, !tbaa !53
  %7 = icmp ule i32 %6, 5
  br label %8

8:                                                ; preds = %5, %1
  %9 = phi i1 [ false, %1 ], [ %7, %5 ]
  %10 = zext i1 %9 to i32
  ret i32 %10
}

; Function Attrs: inlinehint nounwind uwtable
define internal i32 @ZSTD_hasExtSeqProd(ptr noundef %0) #2 {
  %2 = alloca ptr, align 8
  store ptr %0, ptr %2, align 8, !tbaa !79
  %3 = load ptr, ptr %2, align 8, !tbaa !79
  %4 = getelementptr inbounds nuw %struct.ZSTD_CCtx_params_s, ptr %3, i32 0, i32 28
  %5 = load ptr, ptr %4, align 8, !tbaa !156
  %6 = icmp ne ptr %5, null
  %7 = zext i1 %6 to i32
  ret i32 %7
}

; Function Attrs: nounwind uwtable
define internal i32 @ZSTD_resolveRowMatchFinderMode(i32 noundef %0, ptr noundef %1) #0 {
  %3 = alloca i32, align 4
  %4 = alloca i32, align 4
  %5 = alloca ptr, align 8
  store i32 %0, ptr %4, align 4, !tbaa !53
  store ptr %1, ptr %5, align 8, !tbaa !15
  %6 = load i32, ptr %4, align 4, !tbaa !53
  %7 = icmp ne i32 %6, 0
  br i1 %7, label %8, label %10

8:                                                ; preds = %2
  %9 = load i32, ptr %4, align 4, !tbaa !53
  store i32 %9, ptr %3, align 4
  br label %26

10:                                               ; preds = %2
  store i32 2, ptr %4, align 4, !tbaa !53
  %11 = load ptr, ptr %5, align 8, !tbaa !15
  %12 = getelementptr inbounds nuw %struct.ZSTD_compressionParameters, ptr %11, i32 0, i32 6
  %13 = load i32, ptr %12, align 4, !tbaa !89
  %14 = call i32 @ZSTD_rowMatchFinderSupported(i32 noundef %13)
  %15 = icmp ne i32 %14, 0
  br i1 %15, label %18, label %16

16:                                               ; preds = %10
  %17 = load i32, ptr %4, align 4, !tbaa !53
  store i32 %17, ptr %3, align 4
  br label %26

18:                                               ; preds = %10
  %19 = load ptr, ptr %5, align 8, !tbaa !15
  %20 = getelementptr inbounds nuw %struct.ZSTD_compressionParameters, ptr %19, i32 0, i32 0
  %21 = load i32, ptr %20, align 4, !tbaa !83
  %22 = icmp ugt i32 %21, 14
  br i1 %22, label %23, label %24

23:                                               ; preds = %18
  store i32 1, ptr %4, align 4, !tbaa !53
  br label %24

24:                                               ; preds = %23, %18
  %25 = load i32, ptr %4, align 4, !tbaa !53
  store i32 %25, ptr %3, align 4
  br label %26

26:                                               ; preds = %24, %16, %8
  %27 = load i32, ptr %3, align 4
  ret i32 %27
}

; Function Attrs: nounwind uwtable
define i64 @ZSTD_estimateCCtxSize_usingCCtxParams(ptr noundef %0) #0 {
  %2 = alloca i64, align 8
  %3 = alloca ptr, align 8
  %4 = alloca %struct.ZSTD_compressionParameters, align 4
  %5 = alloca i32, align 4
  %6 = alloca i32, align 4
  store ptr %0, ptr %3, align 8, !tbaa !79
  call void @llvm.lifetime.start.p0(i64 28, ptr %4) #15
  %7 = load ptr, ptr %3, align 8, !tbaa !79
  call void @ZSTD_getCParamsFromCCtxParams(ptr dead_on_unwind writable sret(%struct.ZSTD_compressionParameters) align 4 %4, ptr noundef %7, i64 noundef -1, i64 noundef 0, i32 noundef 0)
  call void @llvm.lifetime.start.p0(i64 4, ptr %5) #15
  %8 = load ptr, ptr %3, align 8, !tbaa !79
  %9 = getelementptr inbounds nuw %struct.ZSTD_CCtx_params_s, ptr %8, i32 0, i32 22
  %10 = load i32, ptr %9, align 8, !tbaa !92
  %11 = call i32 @ZSTD_resolveRowMatchFinderMode(i32 noundef %10, ptr noundef %4)
  store i32 %11, ptr %5, align 4, !tbaa !53
  br label %12

12:                                               ; preds = %1
  %13 = load ptr, ptr %3, align 8, !tbaa !79
  %14 = getelementptr inbounds nuw %struct.ZSTD_CCtx_params_s, ptr %13, i32 0, i32 9
  %15 = load i32, ptr %14, align 4, !tbaa !117
  %16 = icmp sgt i32 %15, 0
  br i1 %16, label %17, label %30

17:                                               ; preds = %12
  br label %18

18:                                               ; preds = %17
  br label %19

19:                                               ; preds = %18
  br label %20

20:                                               ; preds = %19
  br label %21

21:                                               ; preds = %20
  br label %22

22:                                               ; preds = %21
  br label %23

23:                                               ; preds = %22
  br label %24

24:                                               ; preds = %23
  br label %25

25:                                               ; preds = %24
  br label %26

26:                                               ; preds = %25
  br label %27

27:                                               ; preds = %26
  br label %28

28:                                               ; preds = %27
  br label %29

29:                                               ; preds = %28
  store i64 -1, ptr %2, align 8
  store i32 1, ptr %6, align 4
  br label %42

30:                                               ; preds = %12
  br label %31

31:                                               ; preds = %30
  br label %32

32:                                               ; preds = %31
  %33 = load ptr, ptr %3, align 8, !tbaa !79
  %34 = getelementptr inbounds nuw %struct.ZSTD_CCtx_params_s, ptr %33, i32 0, i32 13
  %35 = load i32, ptr %5, align 4, !tbaa !53
  %36 = load ptr, ptr %3, align 8, !tbaa !79
  %37 = call i32 @ZSTD_hasExtSeqProd(ptr noundef %36)
  %38 = load ptr, ptr %3, align 8, !tbaa !79
  %39 = getelementptr inbounds nuw %struct.ZSTD_CCtx_params_s, ptr %38, i32 0, i32 21
  %40 = load i64, ptr %39, align 8, !tbaa !96
  %41 = call i64 @ZSTD_estimateCCtxSize_usingCCtxParams_internal(ptr noundef %4, ptr noundef %34, i32 noundef 1, i32 noundef %35, i64 noundef 0, i64 noundef 0, i64 noundef -1, i32 noundef %37, i64 noundef %40)
  store i64 %41, ptr %2, align 8
  store i32 1, ptr %6, align 4
  br label %42

42:                                               ; preds = %32, %29
  call void @llvm.lifetime.end.p0(i64 4, ptr %5) #15
  call void @llvm.lifetime.end.p0(i64 28, ptr %4) #15
  %43 = load i64, ptr %2, align 8
  ret i64 %43
}